(lp0
I14
aF2500.0
aF11000.0
aF1024.0
aI-50
aI50
aF4.0
a(lp1
S'Ia-norm'
p2
aS'IIb'
p3
aS'Ia-pec'
p4
aS'Ic-broad'
p5
aS'Ia-csm'
p6
aS'Ic-norm'
p7
aS'IIP'
p8
aS'Ib-pec'
p9
aS'IIL'
p10
aS'Ib-norm'
p11
aS'Ia-91bg'
p12
aS'II-pec'
p13
aS'Ia-91T'
p14
aS'IIn'
p15
aa.